target datalayout = "e-m:e-p270:32:32-p271:32:32-p272:64:64-i64:64-i128:128-f80:128-n8:16:32:64-S128"
target triple = "x86_64-pc-linux-gnu"

%struct.AVFormatContext = type { ptr, ptr, ptr, ptr, ptr, i32, i32, ptr, i32, ptr, i32, ptr, ptr, i64, i64, i64, i32, i32, i32, i64, i64, ptr, i32, i32, ptr, i32, i32, i32, i32, ptr, i64, i32, i32, %struct.AVIOInterruptCB, i32, i32, i32, i32, i64, i32, i32, i32, i32, i32, i32, i32, i32, i32, i32, i32, i32, i64, i32, i32, i32, i32, i32, ptr, ptr, ptr, ptr, i32, ptr, ptr, ptr, ptr, i32, ptr, ptr, i64, ptr, ptr, ptr, i64 }
%struct.AVIOInterruptCB = type { ptr, ptr }
%struct.ogg = type { ptr, i32, i32, i32, i64, ptr }
%struct.ogg_stream = type { ptr, i32, i32, i32, i32, i32, i32, i32, i64, i64, i64, i64, i64, i64, i32, ptr, i32, i32, i32, [255 x i8], i32, i32, i32, i32, i32, i32, i32, i32, ptr, i64, ptr }

; Function Attrs: nounwind uwtable
define internal i32 @ogm_packet(ptr noundef %0, i32 noundef %1) #0 {
  %3 = alloca i32, align 4
  %4 = alloca ptr, align 8
  %5 = alloca i32, align 4
  %6 = alloca ptr, align 8
  %7 = alloca ptr, align 8
  %8 = alloca ptr, align 8
  %9 = alloca i32, align 4
  %10 = alloca i32, align 4
  store ptr %0, ptr %4, align 8, !tbaa !4
  store i32 %1, ptr %5, align 4, !tbaa !9
  call void @llvm.lifetime.start.p0(i64 8, ptr %6) #8
  %11 = load ptr, ptr %4, align 8, !tbaa !4
  %12 = getelementptr inbounds nuw %struct.AVFormatContext, ptr %11, i32 0, i32 3
  %13 = load ptr, ptr %12, align 8, !tbaa !11
  store ptr %13, ptr %6, align 8, !tbaa !27
  call void @llvm.lifetime.start.p0(i64 8, ptr %7) #8
  %14 = load ptr, ptr %6, align 8, !tbaa !27
  %15 = getelementptr inbounds nuw %struct.ogg, ptr %14, i32 0, i32 0
  %16 = load ptr, ptr %15, align 8, !tbaa !29
  %17 = load i32, ptr %5, align 4, !tbaa !9
  %18 = sext i32 %17 to i64
  %19 = getelementptr inbounds %struct.ogg_stream, ptr %16, i64 %18
  store ptr %19, ptr %7, align 8, !tbaa !33
  call void @llvm.lifetime.start.p0(i64 8, ptr %8) #8
  %20 = load ptr, ptr %7, align 8, !tbaa !33
  %21 = getelementptr inbounds nuw %struct.ogg_stream, ptr %20, i32 0, i32 0
  %22 = load ptr, ptr %21, align 8, !tbaa !39
  %23 = load ptr, ptr %7, align 8, !tbaa !33
  %24 = getelementptr inbounds nuw %struct.ogg_stream, ptr %23, i32 0, i32 3
  %25 = load i32, ptr %24, align 8, !tbaa !42
  %26 = zext i32 %25 to i64
  %27 = getelementptr inbounds nuw i8, ptr %22, i64 %26
  store ptr %27, ptr %8, align 8, !tbaa !80
  call void @llvm.lifetime.start.p0(i64 4, ptr %9) #8
  %28 = load ptr, ptr %8, align 8, !tbaa !80
  %29 = load i8, ptr %28, align 1, !tbaa !68
  %30 = zext i8 %29 to i32
  %31 = and i32 %30, 8
  %32 = icmp ne i32 %31, 0
  br i1 %32, label %33, label %38

33:                                               ; preds = %2
  %34 = load ptr, ptr %7, align 8, !tbaa !33
  %35 = getelementptr inbounds nuw %struct.ogg_stream, ptr %34, i32 0, i32 5
  %36 = load i32, ptr %35, align 8, !tbaa !81
  %37 = or i32 %36, 1
  store i32 %37, ptr %35, align 8, !tbaa !81
  br label %38

38:                                               ; preds = %33, %2
  %39 = load ptr, ptr %8, align 8, !tbaa !80
  %40 = load i8, ptr %39, align 1, !tbaa !68
  %41 = zext i8 %40 to i32
  %42 = and i32 %41, 2
  %43 = shl i32 %42, 1
  %44 = load ptr, ptr %8, align 8, !tbaa !80
  %45 = load i8, ptr %44, align 1, !tbaa !68
  %46 = zext i8 %45 to i32
  %47 = ashr i32 %46, 6
  %48 = and i32 %47, 3
  %49 = or i32 %43, %48
  store i32 %49, ptr %9, align 4, !tbaa !9
  %50 = load ptr, ptr %7, align 8, !tbaa !33
  %51 = getelementptr inbounds nuw %struct.ogg_stream, ptr %50, i32 0, i32 4
  %52 = load i32, ptr %51, align 4, !tbaa !43
  %53 = load i32, ptr %9, align 4, !tbaa !9
  %54 = add nsw i32 %53, 1
  %55 = icmp ult i32 %52, %54
  br i1 %55, label %56, label %57

56:                                               ; preds = %38
  store i32 -1094995529, ptr %3, align 4
  store i32 1, ptr %10, align 4
  br label %93

57:                                               ; preds = %38
  %58 = load i32, ptr %9, align 4, !tbaa !9
  %59 = add nsw i32 %58, 1
  %60 = load ptr, ptr %7, align 8, !tbaa !33
  %61 = getelementptr inbounds nuw %struct.ogg_stream, ptr %60, i32 0, i32 3
  %62 = load i32, ptr %61, align 8, !tbaa !42
  %63 = add i32 %62, %59
  store i32 %63, ptr %61, align 8, !tbaa !42
  %64 = load i32, ptr %9, align 4, !tbaa !9
  %65 = add nsw i32 %64, 1
  %66 = load ptr, ptr %7, align 8, !tbaa !33
  %67 = getelementptr inbounds nuw %struct.ogg_stream, ptr %66, i32 0, i32 4
  %68 = load i32, ptr %67, align 4, !tbaa !43
  %69 = sub i32 %68, %65
  store i32 %69, ptr %67, align 4, !tbaa !43
  br label %70

70:                                               ; preds = %74, %57
  %71 = load i32, ptr %9, align 4, !tbaa !9
  %72 = add nsw i32 %71, -1
  store i32 %72, ptr %9, align 4, !tbaa !9
  %73 = icmp ne i32 %71, 0
  br i1 %73, label %74, label %92

74:                                               ; preds = %70
  %75 = load ptr, ptr %8, align 8, !tbaa !80
  %76 = load i32, ptr %9, align 4, !tbaa !9
  %77 = add nsw i32 %76, 1
  %78 = sext i32 %77 to i64
  %79 = getelementptr inbounds i8, ptr %75, i64 %78
  %80 = load i8, ptr %79, align 1, !tbaa !68
  %81 = zext i8 %80 to i64
  %82 = load i32, ptr %9, align 4, !tbaa !9
  %83 = mul nsw i32 %82, 8
  %84 = zext i32 %83 to i64
  %85 = shl i64 %81, %84
  %86 = load ptr, ptr %7, align 8, !tbaa !33
  %87 = getelementptr inbounds nuw %struct.ogg_stream, ptr %86, i32 0, i32 6
  %88 = load i32, ptr %87, align 4, !tbaa !82
  %89 = zext i32 %88 to i64
  %90 = add i64 %89, %85
  %91 = trunc i64 %90 to i32
  store i32 %91, ptr %87, align 4, !tbaa !82
  br label %70, !llvm.loop !83

92:                                               ; preds = %70
  store i32 0, ptr %3, align 4
  store i32 1, ptr %10, align 4
  br label %93

93:                                               ; preds = %92, %56
  call void @llvm.lifetime.end.p0(i64 4, ptr %9) #8
  call void @llvm.lifetime.end.p0(i64 8, ptr %8) #8
  call void @llvm.lifetime.end.p0(i64 8, ptr %7) #8
  call void @llvm.lifetime.end.p0(i64 8, ptr %6) #8
  %94 = load i32, ptr %3, align 4
  ret i32 %94
}