; Function Attrs: nofree norecurse nosync nounwind memory(readwrite, inaccessiblemem: none) uwtable
define internal range(i32 -1094995529, 1) i32 @ogm_packet(ptr noundef readonly captures(none) %0, i32 noundef %1) #1 {
  %3 = getelementptr inbounds nuw i8, ptr %0, i64 24
  %4 = load ptr, ptr %3, align 8, !tbaa !4
  %5 = load ptr, ptr %4, align 8, !tbaa !24
  %6 = sext i32 %1 to i64
  %7 = getelementptr inbounds %struct.ogg_stream, ptr %5, i64 %6
  %8 = load ptr, ptr %7, align 8, !tbaa !31
  %9 = getelementptr inbounds nuw i8, ptr %7, i64 16
  %10 = load i32, ptr %9, align 8, !tbaa !34
  %11 = zext i32 %10 to i64
  %12 = getelementptr inbounds nuw i8, ptr %8, i64 %11
  %13 = load i8, ptr %12, align 1, !tbaa !36
  %14 = and i8 %13, 8
  %.not = icmp eq i8 %14, 0
  br i1 %.not, label %19, label %15

15:                                               ; preds = %2
  %16 = getelementptr inbounds nuw i8, ptr %7, i64 24
  %17 = load i32, ptr %16, align 8, !tbaa !70
  %18 = or i32 %17, 1
  store i32 %18, ptr %16, align 8, !tbaa !70
  %.pre = load i8, ptr %12, align 1, !tbaa !36
  br label %19

19:                                               ; preds = %15, %2
  %20 = phi i8 [ %.pre, %15 ], [ %13, %2 ]
  %21 = zext i8 %20 to i32
  %22 = shl nuw nsw i32 %21, 1
  %23 = and i32 %22, 4
  %24 = lshr i32 %21, 6
  %25 = or disjoint i32 %23, %24
  %26 = getelementptr inbounds nuw i8, ptr %7, i64 20
  %27 = load i32, ptr %26, align 4, !tbaa !35
  %.not22 = icmp ugt i32 %27, %25
  br i1 %.not22, label %28, label %.loopexit

28:                                               ; preds = %19
  %29 = add nuw nsw i32 %25, 1
  %30 = add i32 %29, %10
  store i32 %30, ptr %9, align 8, !tbaa !34
  %31 = sub i32 %27, %29
  store i32 %31, ptr %26, align 4, !tbaa !35
  %.not2324 = icmp eq i32 %25, 0
  br i1 %.not2324, label %.loopexit, label %.lr.ph

.lr.ph:                                           ; preds = %28
  %32 = getelementptr inbounds nuw i8, ptr %7, i64 28
  %.promoted = load i32, ptr %32, align 4, !tbaa !71
  %33 = zext nneg i32 %25 to i64
  br label %34

34:                                               ; preds = %.lr.ph, %34
  %indvars.iv = phi i64 [ %33, %.lr.ph ], [ %indvars.iv.next, %34 ]
  %35 = phi i32 [ %.promoted, %.lr.ph ], [ %42, %34 ]
  %indvars.iv.next = add nsw i64 %indvars.iv, -1
  %36 = getelementptr inbounds i8, ptr %12, i64 %indvars.iv
  %37 = load i8, ptr %36, align 1, !tbaa !36
  %38 = zext i8 %37 to i64
  %39 = shl nsw i64 %indvars.iv.next, 3
  %40 = shl i64 %38, %39
  %41 = trunc i64 %40 to i32
  %42 = add i32 %35, %41
  store i32 %42, ptr %32, align 4, !tbaa !71
  %43 = icmp eq i64 %indvars.iv.next, 0
  br i1 %43, label %.loopexit, label %34, !llvm.loop !72

.loopexit:                                        ; preds = %34, %28, %19
  %.020 = phi i32 [ -1094995529, %19 ], [ 0, %28 ], [ 0, %34 ]
  ret i32 %.020
}